target datalayout = "e-m:e-p270:32:32-p271:32:32-p272:64:64-i64:64-i128:128-f80:128-n8:16:32:64-S128"
target triple = "x86_64-pc-linux-gnu"

%struct.H5D_chk_idx_info_t = type { ptr, ptr, ptr, ptr }
%struct.H5O_storage_chunk_t = type { i32, i64, ptr, %union.anon }
%union.anon = type { %struct.H5O_storage_chunk_btree_t }
%struct.H5O_storage_chunk_btree_t = type { i64, ptr }
%struct.H5O_storage_chunk_bt2_t = type { i64, ptr }
%struct.H5O_layout_chunk_t = type { i32, i8, i32, [33 x i32], i32, i32, i64, i64, [33 x i64], [33 x i64], [33 x i64], [33 x i64], %union.anon.0 }
%union.anon.0 = type { %struct.H5O_layout_chunk_earray_t }
%struct.H5O_layout_chunk_earray_t = type { %struct.anon.1, i32, [33 x i32], [33 x i64], [33 x i64] }
%struct.anon.1 = type { i8, i8, i8, i8, i8 }
%struct.H5O_pline_t = type { %struct.H5O_shared_t, i32, i64, i64, ptr }
%struct.H5O_shared_t = type { i32, ptr, i32, %union.anon.3 }
%union.anon.3 = type { %struct.H5O_mesg_loc_t }
%struct.H5O_mesg_loc_t = type { i32, i64 }
%struct.H5D_bt2_ud_t = type { %struct.H5D_chunk_rec_t, i32 }
%struct.H5D_chunk_rec_t = type { [33 x i64], i32, i32, i64 }
%struct.H5D_chunk_ud_t = type { %struct.H5D_chunk_common_ud_t, i32, %struct.H5F_block_t, i32, i8, i64 }
%struct.H5D_chunk_common_ud_t = type { ptr, ptr, ptr }
%struct.H5F_block_t = type { i64, i64 }

@.str.2 = private unnamed_addr constant [103 x i8] c"generated/home/dtcxzyw/WorkSpace/Projects/compilers/llvm-opt-benchmark/bench/hdf5/hdf5/src/H5Dbtree2.c\00", align 1
@H5E_DATASET_g = external global i64, align 8
@__func__.H5D__bt2_idx_insert = private unnamed_addr constant [20 x i8] c"H5D__bt2_idx_insert\00", align 1
@H5E_CANTOPENOBJ_g = external global i64, align 8
@.str.28 = private unnamed_addr constant [21 x i8] c"can't open v2 B-tree\00", align 1
@.str.29 = private unnamed_addr constant [35 x i8] c"can't patch v2 B-tree file pointer\00", align 1
@H5E_CANTUPDATE_g = external global i64, align 8
@.str.30 = private unnamed_addr constant [37 x i8] c"unable to update record in v2 B-tree\00", align 1

; Function Attrs: nounwind uwtable
define internal i32 @H5D__bt2_idx_insert(ptr noundef %0, ptr noundef %1, ptr noundef %2) #0 {
  %4 = alloca ptr, align 8
  %5 = alloca ptr, align 8
  %6 = alloca ptr, align 8
  %7 = alloca ptr, align 8
  %8 = alloca %struct.H5D_bt2_ud_t, align 8
  %9 = alloca i32, align 4
  %10 = alloca i32, align 4
  %11 = alloca i8, align 1
  store ptr %0, ptr %4, align 8
  store ptr %1, ptr %5, align 8
  store ptr %2, ptr %6, align 8
  store i32 0, ptr %10, align 4
  store i8 0, ptr %11, align 1
  %12 = load ptr, ptr %4, align 8
  %13 = getelementptr inbounds %struct.H5D_chk_idx_info_t, ptr %12, i32 0, i32 3
  %14 = load ptr, ptr %13, align 8
  %15 = getelementptr inbounds %struct.H5O_storage_chunk_t, ptr %14, i32 0, i32 3
  %16 = getelementptr inbounds %struct.H5O_storage_chunk_bt2_t, ptr %15, i32 0, i32 1
  %17 = load ptr, ptr %16, align 8
  %18 = icmp ne ptr null, %17
  br i1 %18, label %39, label %19

19:                                               ; preds = %3
  %20 = load ptr, ptr %4, align 8
  %21 = call i32 @H5D__bt2_idx_open(ptr noundef %20)
  %22 = icmp slt i32 %21, 0
  br i1 %22, label %23, label %38

23:                                               ; preds = %19
  br label %24

24:                                               ; preds = %23
  br label %25

25:                                               ; preds = %24
  br label %26

26:                                               ; preds = %25
  %27 = load i64, ptr @H5E_DATASET_g, align 8
  %28 = load i64, ptr @H5E_CANTOPENOBJ_g, align 8
  %29 = call i32 (ptr, ptr, i32, i64, i64, ptr, ...) @H5E_printf_stack(ptr noundef @.str.2, ptr noundef @__func__.H5D__bt2_idx_insert, i32 noundef 927, i64 noundef %27, i64 noundef %28, ptr noundef @.str.28)
  br label %30

30:                                               ; preds = %26
  store i8 1, ptr %11, align 1
  %31 = load i8, ptr %11, align 1
  %32 = trunc i8 %31 to i1
  %33 = zext i1 %32 to i8
  store i8 %33, ptr %11, align 1
  br label %34

34:                                               ; preds = %30
  br label %35

35:                                               ; preds = %34
  store i32 -1, ptr %10, align 4
  br label %165

36:                                               ; No predecessors!
  br label %37

37:                                               ; preds = %36
  br label %38

38:                                               ; preds = %37, %19
  br label %67

39:                                               ; preds = %3
  %40 = load ptr, ptr %4, align 8
  %41 = getelementptr inbounds %struct.H5D_chk_idx_info_t, ptr %40, i32 0, i32 3
  %42 = load ptr, ptr %41, align 8
  %43 = getelementptr inbounds %struct.H5O_storage_chunk_t, ptr %42, i32 0, i32 3
  %44 = getelementptr inbounds %struct.H5O_storage_chunk_bt2_t, ptr %43, i32 0, i32 1
  %45 = load ptr, ptr %44, align 8
  %46 = load ptr, ptr %4, align 8
  %47 = getelementptr inbounds %struct.H5D_chk_idx_info_t, ptr %46, i32 0, i32 0
  %48 = load ptr, ptr %47, align 8
  %49 = call i32 @H5B2_patch_file(ptr noundef %45, ptr noundef %48)
  %50 = icmp slt i32 %49, 0
  br i1 %50, label %51, label %66

51:                                               ; preds = %39
  br label %52

52:                                               ; preds = %51
  br label %53

53:                                               ; preds = %52
  br label %54

54:                                               ; preds = %53
  %55 = load i64, ptr @H5E_DATASET_g, align 8
  %56 = load i64, ptr @H5E_CANTOPENOBJ_g, align 8
  %57 = call i32 (ptr, ptr, i32, i64, i64, ptr, ...) @H5E_printf_stack(ptr noundef @.str.2, ptr noundef @__func__.H5D__bt2_idx_insert, i32 noundef 931, i64 noundef %55, i64 noundef %56, ptr noundef @.str.29)
  br label %58

58:                                               ; preds = %54
  store i8 1, ptr %11, align 1
  %59 = load i8, ptr %11, align 1
  %60 = trunc i8 %59 to i1
  %61 = zext i1 %60 to i8
  store i8 %61, ptr %11, align 1
  br label %62

62:                                               ; preds = %58
  br label %63

63:                                               ; preds = %62
  store i32 -1, ptr %10, align 4
  br label %165

64:                                               ; No predecessors!
  br label %65

65:                                               ; preds = %64
  br label %66

66:                                               ; preds = %65, %39
  br label %67

67:                                               ; preds = %66, %38
  %68 = load ptr, ptr %4, align 8
  %69 = getelementptr inbounds %struct.H5D_chk_idx_info_t, ptr %68, i32 0, i32 3
  %70 = load ptr, ptr %69, align 8
  %71 = getelementptr inbounds %struct.H5O_storage_chunk_t, ptr %70, i32 0, i32 3
  %72 = getelementptr inbounds %struct.H5O_storage_chunk_bt2_t, ptr %71, i32 0, i32 1
  %73 = load ptr, ptr %72, align 8
  store ptr %73, ptr %7, align 8
  %74 = load ptr, ptr %4, align 8
  %75 = getelementptr inbounds %struct.H5D_chk_idx_info_t, ptr %74, i32 0, i32 2
  %76 = load ptr, ptr %75, align 8
  %77 = getelementptr inbounds %struct.H5O_layout_chunk_t, ptr %76, i32 0, i32 2
  %78 = load i32, ptr %77, align 8
  %79 = sub i32 %78, 1
  %80 = getelementptr inbounds %struct.H5D_bt2_ud_t, ptr %8, i32 0, i32 1
  store i32 %79, ptr %80, align 8
  %81 = load ptr, ptr %5, align 8
  %82 = getelementptr inbounds %struct.H5D_chunk_ud_t, ptr %81, i32 0, i32 2
  %83 = getelementptr inbounds %struct.H5F_block_t, ptr %82, i32 0, i32 0
  %84 = load i64, ptr %83, align 8
  %85 = getelementptr inbounds %struct.H5D_bt2_ud_t, ptr %8, i32 0, i32 0
  %86 = getelementptr inbounds %struct.H5D_chunk_rec_t, ptr %85, i32 0, i32 3
  store i64 %84, ptr %86, align 8
  %87 = load ptr, ptr %4, align 8
  %88 = getelementptr inbounds %struct.H5D_chk_idx_info_t, ptr %87, i32 0, i32 1
  %89 = load ptr, ptr %88, align 8
  %90 = getelementptr inbounds %struct.H5O_pline_t, ptr %89, i32 0, i32 3
  %91 = load i64, ptr %90, align 8
  %92 = icmp ugt i64 %91, 0
  br i1 %92, label %93, label %108

93:                                               ; preds = %67
  br label %94

94:                                               ; preds = %93
  %95 = load ptr, ptr %5, align 8
  %96 = getelementptr inbounds %struct.H5D_chunk_ud_t, ptr %95, i32 0, i32 2
  %97 = getelementptr inbounds %struct.H5F_block_t, ptr %96, i32 0, i32 1
  %98 = load i64, ptr %97, align 8
  %99 = trunc i64 %98 to i32
  %100 = getelementptr inbounds %struct.H5D_bt2_ud_t, ptr %8, i32 0, i32 0
  %101 = getelementptr inbounds %struct.H5D_chunk_rec_t, ptr %100, i32 0, i32 1
  store i32 %99, ptr %101, align 8
  br label %102

102:                                              ; preds = %94
  %103 = load ptr, ptr %5, align 8
  %104 = getelementptr inbounds %struct.H5D_chunk_ud_t, ptr %103, i32 0, i32 3
  %105 = load i32, ptr %104, align 8
  %106 = getelementptr inbounds %struct.H5D_bt2_ud_t, ptr %8, i32 0, i32 0
  %107 = getelementptr inbounds %struct.H5D_chunk_rec_t, ptr %106, i32 0, i32 2
  store i32 %105, ptr %107, align 4
  br label %118

108:                                              ; preds = %67
  %109 = load ptr, ptr %4, align 8
  %110 = getelementptr inbounds %struct.H5D_chk_idx_info_t, ptr %109, i32 0, i32 2
  %111 = load ptr, ptr %110, align 8
  %112 = getelementptr inbounds %struct.H5O_layout_chunk_t, ptr %111, i32 0, i32 5
  %113 = load i32, ptr %112, align 4
  %114 = getelementptr inbounds %struct.H5D_bt2_ud_t, ptr %8, i32 0, i32 0
  %115 = getelementptr inbounds %struct.H5D_chunk_rec_t, ptr %114, i32 0, i32 1
  store i32 %113, ptr %115, align 8
  %116 = getelementptr inbounds %struct.H5D_bt2_ud_t, ptr %8, i32 0, i32 0
  %117 = getelementptr inbounds %struct.H5D_chunk_rec_t, ptr %116, i32 0, i32 2
  store i32 0, ptr %117, align 4
  br label %118

118:                                              ; preds = %108, %102
  store i32 0, ptr %9, align 4
  br label %119

119:                                              ; preds = %142, %118
  %120 = load i32, ptr %9, align 4
  %121 = load ptr, ptr %4, align 8
  %122 = getelementptr inbounds %struct.H5D_chk_idx_info_t, ptr %121, i32 0, i32 2
  %123 = load ptr, ptr %122, align 8
  %124 = getelementptr inbounds %struct.H5O_layout_chunk_t, ptr %123, i32 0, i32 2
  %125 = load i32, ptr %124, align 8
  %126 = sub i32 %125, 1
  %127 = icmp ult i32 %120, %126
  br i1 %127, label %128, label %145

128:                                              ; preds = %119
  %129 = load ptr, ptr %5, align 8
  %130 = getelementptr inbounds %struct.H5D_chunk_ud_t, ptr %129, i32 0, i32 0
  %131 = getelementptr inbounds %struct.H5D_chunk_common_ud_t, ptr %130, i32 0, i32 2
  %132 = load ptr, ptr %131, align 8
  %133 = load i32, ptr %9, align 4
  %134 = zext i32 %133 to i64
  %135 = getelementptr inbounds i64, ptr %132, i64 %134
  %136 = load i64, ptr %135, align 8
  %137 = getelementptr inbounds %struct.H5D_bt2_ud_t, ptr %8, i32 0, i32 0
  %138 = getelementptr inbounds %struct.H5D_chunk_rec_t, ptr %137, i32 0, i32 0
  %139 = load i32, ptr %9, align 4
  %140 = zext i32 %139 to i64
  %141 = getelementptr inbounds [33 x i64], ptr %138, i64 0, i64 %140
  store i64 %136, ptr %141, align 8
  br label %142

142:                                              ; preds = %128
  %143 = load i32, ptr %9, align 4
  %144 = add i32 %143, 1
  store i32 %144, ptr %9, align 4
  br label %119

145:                                              ; preds = %119
  %146 = load ptr, ptr %7, align 8
  %147 = call i32 @H5B2_update(ptr noundef %146, ptr noundef %8, ptr noundef @H5D__bt2_mod_cb, ptr noundef %8)
  %148 = icmp slt i32 %147, 0
  br i1 %148, label %149, label %164

149:                                              ; preds = %145
  br label %150

150:                                              ; preds = %149
  br label %151

151:                                              ; preds = %150
  br label %152

152:                                              ; preds = %151
  %153 = load i64, ptr @H5E_DATASET_g, align 8
  %154 = load i64, ptr @H5E_CANTUPDATE_g, align 8
  %155 = call i32 (ptr, ptr, i32, i64, i64, ptr, ...) @H5E_printf_stack(ptr noundef @.str.2, ptr noundef @__func__.H5D__bt2_idx_insert, i32 noundef 952, i64 noundef %153, i64 noundef %154, ptr noundef @.str.30)
  br label %156

156:                                              ; preds = %152
  store i8 1, ptr %11, align 1
  %157 = load i8, ptr %11, align 1
  %158 = trunc i8 %157 to i1
  %159 = zext i1 %158 to i8
  store i8 %159, ptr %11, align 1
  br label %160

160:                                              ; preds = %156
  br label %161

161:                                              ; preds = %160
  store i32 -1, ptr %10, align 4
  br label %165

162:                                              ; No predecessors!
  br label %163

163:                                              ; preds = %162
  br label %164

164:                                              ; preds = %163, %145
  br label %165

165:                                              ; preds = %164, %161, %63, %35
  %166 = load i32, ptr %10, align 4
  ret i32 %166
}