; Function Attrs: nounwind uwtable
define internal range(i32 -1, 1) i32 @H5D__bt2_idx_insert(ptr nocapture noundef readonly %0, ptr nocapture noundef readonly %1, ptr nocapture readnone %2) #1 {
  %4 = alloca %struct.H5D_bt2_ud_t, align 8
  %5 = getelementptr inbounds i8, ptr %0, i64 24
  %6 = load ptr, ptr %5, align 8
  %7 = getelementptr inbounds i8, ptr %6, i64 32
  %8 = load ptr, ptr %7, align 8
  %.not = icmp eq ptr %8, null
  br i1 %.not, label %9, label %16

9:                                                ; preds = %3
  %10 = tail call i32 @H5D__bt2_idx_open(ptr noundef nonnull %0)
  %11 = icmp slt i32 %10, 0
  br i1 %11, label %12, label %24

12:                                               ; preds = %9
  %13 = load i64, ptr @H5E_DATASET_g, align 8
  %14 = load i64, ptr @H5E_CANTOPENOBJ_g, align 8
  %15 = tail call i32 (ptr, ptr, i32, i64, i64, ptr, ...) @H5E_printf_stack(ptr noundef nonnull @.str.2, ptr noundef nonnull @__func__.H5D__bt2_idx_insert, i32 noundef 927, i64 noundef %13, i64 noundef %14, ptr noundef nonnull @.str.28) #14
  br label %67

16:                                               ; preds = %3
  %17 = load ptr, ptr %0, align 8
  %18 = tail call i32 @H5B2_patch_file(ptr noundef nonnull %8, ptr noundef %17) #14
  %19 = icmp slt i32 %18, 0
  br i1 %19, label %20, label %24

20:                                               ; preds = %16
  %21 = load i64, ptr @H5E_DATASET_g, align 8
  %22 = load i64, ptr @H5E_CANTOPENOBJ_g, align 8
  %23 = tail call i32 (ptr, ptr, i32, i64, i64, ptr, ...) @H5E_printf_stack(ptr noundef nonnull @.str.2, ptr noundef nonnull @__func__.H5D__bt2_idx_insert, i32 noundef 931, i64 noundef %21, i64 noundef %22, ptr noundef nonnull @.str.29) #14
  br label %67

24:                                               ; preds = %16, %9
  %25 = load ptr, ptr %5, align 8
  %26 = getelementptr inbounds i8, ptr %25, i64 32
  %27 = load ptr, ptr %26, align 8
  %28 = getelementptr inbounds i8, ptr %0, i64 16
  %29 = load ptr, ptr %28, align 8
  %30 = getelementptr inbounds i8, ptr %29, i64 8
  %31 = load i32, ptr %30, align 8
  %32 = add i32 %31, -1
  %33 = getelementptr inbounds i8, ptr %4, i64 280
  store i32 %32, ptr %33, align 8
  %34 = getelementptr inbounds i8, ptr %1, i64 32
  %35 = load i64, ptr %34, align 8
  %36 = getelementptr inbounds i8, ptr %4, i64 272
  store i64 %35, ptr %36, align 8
  %37 = getelementptr inbounds i8, ptr %0, i64 8
  %38 = load ptr, ptr %37, align 8
  %39 = getelementptr inbounds i8, ptr %38, i64 56
  %40 = load i64, ptr %39, align 8
  %.not23 = icmp eq i64 %40, 0
  br i1 %.not23, label %47, label %41

41:                                               ; preds = %24
  %42 = getelementptr inbounds i8, ptr %1, i64 40
  %43 = load i64, ptr %42, align 8
  %44 = trunc i64 %43 to i32
  %45 = getelementptr inbounds i8, ptr %1, i64 48
  %46 = load i32, ptr %45, align 8
  br label %50

47:                                               ; preds = %24
  %48 = getelementptr inbounds i8, ptr %29, i64 148
  %49 = load i32, ptr %48, align 4
  br label %50

50:                                               ; preds = %47, %41
  %.sink27 = phi i32 [ %49, %47 ], [ %44, %41 ]
  %.sink = phi i32 [ 0, %47 ], [ %46, %41 ]
  %51 = getelementptr inbounds i8, ptr %4, i64 264
  store i32 %.sink27, ptr %51, align 8
  %52 = getelementptr inbounds i8, ptr %4, i64 268
  store i32 %.sink, ptr %52, align 4
  %.not25 = icmp eq i32 %31, 1
  br i1 %.not25, label %._crit_edge, label %.lr.ph

.lr.ph:                                           ; preds = %50
  %53 = getelementptr inbounds i8, ptr %1, i64 16
  %54 = load ptr, ptr %53, align 8
  %55 = zext i32 %32 to i64
  br label %56

56:                                               ; preds = %.lr.ph, %56
  %indvars.iv = phi i64 [ 0, %.lr.ph ], [ %indvars.iv.next, %56 ]
  %57 = getelementptr inbounds i64, ptr %54, i64 %indvars.iv
  %58 = load i64, ptr %57, align 8
  %59 = getelementptr inbounds [33 x i64], ptr %4, i64 0, i64 %indvars.iv
  store i64 %58, ptr %59, align 8
  %indvars.iv.next = add nuw nsw i64 %indvars.iv, 1
  %60 = icmp ult i64 %indvars.iv.next, %55
  br i1 %60, label %56, label %._crit_edge

._crit_edge:                                      ; preds = %56, %50
  %61 = call i32 @H5B2_update(ptr noundef %27, ptr noundef nonnull %4, ptr noundef nonnull @H5D__bt2_mod_cb, ptr noundef nonnull %4) #14
  %62 = icmp slt i32 %61, 0
  br i1 %62, label %63, label %67

63:                                               ; preds = %._crit_edge
  %64 = load i64, ptr @H5E_DATASET_g, align 8
  %65 = load i64, ptr @H5E_CANTUPDATE_g, align 8
  %66 = call i32 (ptr, ptr, i32, i64, i64, ptr, ...) @H5E_printf_stack(ptr noundef nonnull @.str.2, ptr noundef nonnull @__func__.H5D__bt2_idx_insert, i32 noundef 952, i64 noundef %64, i64 noundef %65, ptr noundef nonnull @.str.30) #14
  br label %67

67:                                               ; preds = %._crit_edge, %63, %20, %12
  %.0 = phi i32 [ -1, %20 ], [ -1, %63 ], [ 0, %._crit_edge ], [ -1, %12 ]
  ret i32 %.0
}